Archive member included to satisfy reference by file (symbol)

C:/devkitPro/libgba/lib\libmm.a(mm_main.o)
                              main.o (mmFrame)
C:/devkitPro/libgba/lib\libmm.a(mm_effect.o)
                              C:/devkitPro/libgba/lib\libmm.a(mm_main.o) (mmResetEffects)
C:/devkitPro/libgba/lib\libmm.a(mm_mas_arm.o)
                              C:/devkitPro/libgba/lib\libmm.a(mm_effect.o) (mmAllocChannel)
C:/devkitPro/libgba/lib\libmm.a(mm_mixer_gba.o)
                              main.o (mmVBlank)
C:/devkitPro/libgba/lib\libmm.a(mm_init_default.o)
                              main.o (mmInitDefault)
C:/devkitPro/libgba/lib\libmm.a(mm_mas.o)
                              C:/devkitPro/libgba/lib\libmm.a(mm_main.o) (mmLayerMain)
C:/devkitPro/libtonc/lib\libtonc.a(tonc_irq.o)
                              main.o (irq_init)
C:/devkitPro/libtonc/lib\libtonc.a(tonc_oam.o)
                              graphics.o (oam_init)
C:/devkitPro/libtonc/lib\libtonc.a(tonc_input.o)
                              main.o (key_poll)
C:/devkitPro/libtonc/lib\libtonc.a(tonc_bios.o)
                              main.o (VBlankIntrWait)
C:/devkitPro/libtonc/lib\libtonc.a(tonc_memcpy.o)
                              graphics.o (memcpy32)
C:/devkitPro/libtonc/lib\libtonc.a(tonc_isr_master.o)
                              C:/devkitPro/libtonc/lib\libtonc.a(tonc_irq.o) (isr_master)
C:/devkitPro/libtonc/lib\libtonc.a(tonc_memset.o)
                              C:/devkitPro/libtonc/lib\libtonc.a(tonc_irq.o) (memset32)
c:/devkitpro/devkitarm/bin/../lib/gcc/arm-none-eabi/10.2.0\libgcc.a(_divsi3.o)
                              graphics.o (__aeabi_idiv)
c:/devkitpro/devkitarm/bin/../lib/gcc/arm-none-eabi/10.2.0\libgcc.a(_dvmd_tls.o)
                              c:/devkitpro/devkitarm/bin/../lib/gcc/arm-none-eabi/10.2.0\libgcc.a(_divsi3.o) (__aeabi_idiv0)
c:/devkitpro/devkitarm/bin/../lib/gcc/arm-none-eabi/10.2.0\libgcc.a(_call_via_rX.o)
                              C:/devkitPro/libgba/lib\libmm.a(mm_main.o) (_call_via_r1)
c:/devkitpro/devkitarm/bin/../lib/gcc/arm-none-eabi/10.2.0/../../../../arm-none-eabi/lib\libg.a(lib_a-init.o)
                              c:/devkitpro/devkitarm/bin/../lib/gcc/arm-none-eabi/10.2.0/../../../../arm-none-eabi/lib/gba_crt0.o (__libc_init_array)
c:/devkitpro/devkitarm/bin/../lib/gcc/arm-none-eabi/10.2.0/../../../../arm-none-eabi/lib\libg.a(lib_a-malloc.o)
                              state_machine.o (malloc)
c:/devkitpro/devkitarm/bin/../lib/gcc/arm-none-eabi/10.2.0/../../../../arm-none-eabi/lib\libg.a(lib_a-mallocr.o)
                              c:/devkitpro/devkitarm/bin/../lib/gcc/arm-none-eabi/10.2.0/../../../../arm-none-eabi/lib\libg.a(lib_a-malloc.o) (_malloc_r)
c:/devkitpro/devkitarm/bin/../lib/gcc/arm-none-eabi/10.2.0/../../../../arm-none-eabi/lib\libg.a(lib_a-memcpy-stub.o)
                              core.o (memcpy)
c:/devkitpro/devkitarm/bin/../lib/gcc/arm-none-eabi/10.2.0/../../../../arm-none-eabi/lib\libg.a(lib_a-mlock.o)
                              c:/devkitpro/devkitarm/bin/../lib/gcc/arm-none-eabi/10.2.0/../../../../arm-none-eabi/lib\libg.a(lib_a-mallocr.o) (__malloc_lock)
c:/devkitpro/devkitarm/bin/../lib/gcc/arm-none-eabi/10.2.0/../../../../arm-none-eabi/lib\libg.a(lib_a-freer.o)
                              c:/devkitpro/devkitarm/bin/../lib/gcc/arm-none-eabi/10.2.0/../../../../arm-none-eabi/lib\libg.a(lib_a-malloc.o) (_free_r)
c:/devkitpro/devkitarm/bin/../lib/gcc/arm-none-eabi/10.2.0/../../../../arm-none-eabi/lib\libsysbase.a(sbrk.o)
                              c:/devkitpro/devkitarm/bin/../lib/gcc/arm-none-eabi/10.2.0/../../../../arm-none-eabi/lib\libg.a(lib_a-mallocr.o) (_sbrk_r)
c:/devkitpro/devkitarm/bin/../lib/gcc/arm-none-eabi/10.2.0/../../../../arm-none-eabi/lib\libsysbase.a(malloc_vars.o)
                              c:/devkitpro/devkitarm/bin/../lib/gcc/arm-none-eabi/10.2.0/../../../../arm-none-eabi/lib\libsysbase.a(sbrk.o) (fake_heap_start)
c:/devkitpro/devkitarm/bin/../lib/gcc/arm-none-eabi/10.2.0/../../../../arm-none-eabi/lib\libsysbase.a(syscall_support.o)
                              c:/devkitpro/devkitarm/bin/../lib/gcc/arm-none-eabi/10.2.0/../../../../arm-none-eabi/lib\libg.a(lib_a-mlock.o) (__libc_lock_acquire_recursive)
c:/devkitpro/devkitarm/bin/../lib/gcc/arm-none-eabi/10.2.0/../../../../arm-none-eabi/lib\libsysbase.a(getreent.o)
                              c:/devkitpro/devkitarm/bin/../lib/gcc/arm-none-eabi/10.2.0/../../../../arm-none-eabi/lib\libg.a(lib_a-malloc.o) (__getreent)
c:/devkitpro/devkitarm/bin/../lib/gcc/arm-none-eabi/10.2.0/../../../../arm-none-eabi/lib\libg.a(lib_a-impure.o)
                              c:/devkitpro/devkitarm/bin/../lib/gcc/arm-none-eabi/10.2.0/../../../../arm-none-eabi/lib\libsysbase.a(getreent.o) (_impure_ptr)

Allocating common symbols
Common symbol       size              file

__isr_table         0x78              C:/devkitPro/libtonc/lib\libtonc.a(tonc_irq.o)

Discarded input sections

 .text          0x0000000000000000        0x0 c:/devkitpro/devkitarm/bin/../lib/gcc/arm-none-eabi/10.2.0/../../../../arm-none-eabi/lib/gba_crt0.o
 .data          0x0000000000000000        0x0 c:/devkitpro/devkitarm/bin/../lib/gcc/arm-none-eabi/10.2.0/../../../../arm-none-eabi/lib/gba_crt0.o
 .bss           0x0000000000000000        0x0 c:/devkitpro/devkitarm/bin/../lib/gcc/arm-none-eabi/10.2.0/../../../../arm-none-eabi/lib/gba_crt0.o
 .text          0x0000000000000000        0x0 c:/devkitpro/devkitarm/bin/../lib/gcc/arm-none-eabi/10.2.0/crti.o
 .data          0x0000000000000000        0x0 c:/devkitpro/devkitarm/bin/../lib/gcc/arm-none-eabi/10.2.0/crti.o
 .bss           0x0000000000000000        0x0 c:/devkitpro/devkitarm/bin/../lib/gcc/arm-none-eabi/10.2.0/crti.o
 .text          0x0000000000000000        0x0 c:/devkitpro/devkitarm/bin/../lib/gcc/arm-none-eabi/10.2.0/crtbegin.o
 .data          0x0000000000000000        0x0 c:/devkitpro/devkitarm/bin/../lib/gcc/arm-none-eabi/10.2.0/crtbegin.o
 .bss           0x0000000000000000        0x0 c:/devkitpro/devkitarm/bin/../lib/gcc/arm-none-eabi/10.2.0/crtbegin.o
 .data.__dso_handle
                0x0000000000000000        0x4 c:/devkitpro/devkitarm/bin/../lib/gcc/arm-none-eabi/10.2.0/crtbegin.o
 .text          0x0000000000000000        0x0 soundbank.bin.o
 .data          0x0000000000000000        0x0 soundbank.bin.o
 .bss           0x0000000000000000        0x0 soundbank.bin.o
 .data          0x0000000000000000        0x0 loading.o
 .bss           0x0000000000000000        0x0 loading.o
 .data          0x0000000000000000        0x0 character.o
 .data          0x0000000000000000        0x0 engine.o
 .bss           0x0000000000000000        0x0 engine.o
 .text          0x0000000000000000        0x0 levels.o
 .data          0x0000000000000000        0x0 levels.o
 .bss           0x0000000000000000        0x0 levels.o
 .text          0x0000000000000000        0x0 sprites.o
 .data          0x0000000000000000        0x0 sprites.o
 .bss           0x0000000000000000        0x0 sprites.o
 .data          0x0000000000000000        0x0 core.o
 .data          0x0000000000000000        0x0 input.o
 .data          0x0000000000000000        0x0 load_data.o
 .data          0x0000000000000000        0x0 main.o
 .bss           0x0000000000000000        0x0 main.o
 .rodata        0x0000000000000000        0x4 main.o
 .bss           0x0000000000000000        0x0 math.o
 .data          0x0000000000000000        0x0 particles.o
 .data          0x0000000000000000        0x0 physics.o
 .data          0x0000000000000000        0x0 state_machine.o
 .bss           0x0000000000000000        0x0 state_machine.o
 .data          0x0000000000000000        0x0 C:/devkitPro/libgba/lib\libmm.a(mm_main.o)
 .data          0x0000000000000000        0x0 C:/devkitPro/libgba/lib\libmm.a(mm_effect.o)
 .text          0x0000000000000000        0x0 C:/devkitPro/libgba/lib\libmm.a(mm_mas_arm.o)
 .data          0x0000000000000000        0x0 C:/devkitPro/libgba/lib\libmm.a(mm_mas_arm.o)
 .bss           0x0000000000000000        0x0 C:/devkitPro/libgba/lib\libmm.a(mm_mas_arm.o)
 .data          0x0000000000000000        0x0 C:/devkitPro/libgba/lib\libmm.a(mm_mixer_gba.o)
 .data          0x0000000000000000        0x0 C:/devkitPro/libgba/lib\libmm.a(mm_init_default.o)
 .data          0x0000000000000000        0x0 C:/devkitPro/libgba/lib\libmm.a(mm_mas.o)
 .data          0x0000000000000000        0x0 C:/devkitPro/libtonc/lib\libtonc.a(tonc_irq.o)
 .bss           0x0000000000000000        0x0 C:/devkitPro/libtonc/lib\libtonc.a(tonc_irq.o)
 .data          0x0000000000000000        0x0 C:/devkitPro/libtonc/lib\libtonc.a(tonc_oam.o)
 .bss           0x0000000000000000        0x0 C:/devkitPro/libtonc/lib\libtonc.a(tonc_oam.o)
 .data          0x0000000000000000        0x0 C:/devkitPro/libtonc/lib\libtonc.a(tonc_bios.o)
 .bss           0x0000000000000000        0x0 C:/devkitPro/libtonc/lib\libtonc.a(tonc_bios.o)
 .text          0x0000000000000000       0x44 C:/devkitPro/libtonc/lib\libtonc.a(tonc_memcpy.o)
 .data          0x0000000000000000        0x0 C:/devkitPro/libtonc/lib\libtonc.a(tonc_memcpy.o)
 .bss           0x0000000000000000        0x0 C:/devkitPro/libtonc/lib\libtonc.a(tonc_memcpy.o)
 .text          0x0000000000000000        0x0 C:/devkitPro/libtonc/lib\libtonc.a(tonc_isr_master.o)
 .data          0x0000000000000000        0x0 C:/devkitPro/libtonc/lib\libtonc.a(tonc_isr_master.o)
 .bss           0x0000000000000000        0x0 C:/devkitPro/libtonc/lib\libtonc.a(tonc_isr_master.o)
 .text          0x0000000000000000       0x3c C:/devkitPro/libtonc/lib\libtonc.a(tonc_memset.o)
 .data          0x0000000000000000        0x0 C:/devkitPro/libtonc/lib\libtonc.a(tonc_memset.o)
 .bss           0x0000000000000000        0x0 C:/devkitPro/libtonc/lib\libtonc.a(tonc_memset.o)
 .data          0x0000000000000000        0x0 c:/devkitpro/devkitarm/bin/../lib/gcc/arm-none-eabi/10.2.0\libgcc.a(_divsi3.o)
 .bss           0x0000000000000000        0x0 c:/devkitpro/devkitarm/bin/../lib/gcc/arm-none-eabi/10.2.0\libgcc.a(_divsi3.o)
 .data          0x0000000000000000        0x0 c:/devkitpro/devkitarm/bin/../lib/gcc/arm-none-eabi/10.2.0\libgcc.a(_dvmd_tls.o)
 .bss           0x0000000000000000        0x0 c:/devkitpro/devkitarm/bin/../lib/gcc/arm-none-eabi/10.2.0\libgcc.a(_dvmd_tls.o)
 .data          0x0000000000000000        0x0 c:/devkitpro/devkitarm/bin/../lib/gcc/arm-none-eabi/10.2.0\libgcc.a(_call_via_rX.o)
 .bss           0x0000000000000000        0x0 c:/devkitpro/devkitarm/bin/../lib/gcc/arm-none-eabi/10.2.0\libgcc.a(_call_via_rX.o)
 .text          0x0000000000000000        0x0 c:/devkitpro/devkitarm/bin/../lib/gcc/arm-none-eabi/10.2.0/../../../../arm-none-eabi/lib\libg.a(lib_a-init.o)
 .data          0x0000000000000000        0x0 c:/devkitpro/devkitarm/bin/../lib/gcc/arm-none-eabi/10.2.0/../../../../arm-none-eabi/lib\libg.a(lib_a-init.o)
 .bss           0x0000000000000000        0x0 c:/devkitpro/devkitarm/bin/../lib/gcc/arm-none-eabi/10.2.0/../../../../arm-none-eabi/lib\libg.a(lib_a-init.o)
 .text          0x0000000000000000        0x0 c:/devkitpro/devkitarm/bin/../lib/gcc/arm-none-eabi/10.2.0/../../../../arm-none-eabi/lib\libg.a(lib_a-malloc.o)
 .data          0x0000000000000000        0x0 c:/devkitpro/devkitarm/bin/../lib/gcc/arm-none-eabi/10.2.0/../../../../arm-none-eabi/lib\libg.a(lib_a-malloc.o)
 .bss           0x0000000000000000        0x0 c:/devkitpro/devkitarm/bin/../lib/gcc/arm-none-eabi/10.2.0/../../../../arm-none-eabi/lib\libg.a(lib_a-malloc.o)
 .text          0x0000000000000000        0x0 c:/devkitpro/devkitarm/bin/../lib/gcc/arm-none-eabi/10.2.0/../../../../arm-none-eabi/lib\libg.a(lib_a-mallocr.o)
 .data          0x0000000000000000        0x0 c:/devkitpro/devkitarm/bin/../lib/gcc/arm-none-eabi/10.2.0/../../../../arm-none-eabi/lib\libg.a(lib_a-mallocr.o)
 .bss           0x0000000000000000        0x0 c:/devkitpro/devkitarm/bin/../lib/gcc/arm-none-eabi/10.2.0/../../../../arm-none-eabi/lib\libg.a(lib_a-mallocr.o)
 .text          0x0000000000000000        0x0 c:/devkitpro/devkitarm/bin/../lib/gcc/arm-none-eabi/10.2.0/../../../../arm-none-eabi/lib\libg.a(lib_a-memcpy-stub.o)
 .data          0x0000000000000000        0x0 c:/devkitpro/devkitarm/bin/../lib/gcc/arm-none-eabi/10.2.0/../../../../arm-none-eabi/lib\libg.a(lib_a-memcpy-stub.o)
 .bss           0x0000000000000000        0x0 c:/devkitpro/devkitarm/bin/../lib/gcc/arm-none-eabi/10.2.0/../../../../arm-none-eabi/lib\libg.a(lib_a-memcpy-stub.o)
 .text          0x0000000000000000        0x0 c:/devkitpro/devkitarm/bin/../lib/gcc/arm-none-eabi/10.2.0/../../../../arm-none-eabi/lib\libg.a(lib_a-mlock.o)
 .data          0x0000000000000000        0x0 c:/devkitpro/devkitarm/bin/../lib/gcc/arm-none-eabi/10.2.0/../../../../arm-none-eabi/lib\libg.a(lib_a-mlock.o)
 .bss           0x0000000000000000        0x0 c:/devkitpro/devkitarm/bin/../lib/gcc/arm-none-eabi/10.2.0/../../../../arm-none-eabi/lib\libg.a(lib_a-mlock.o)
 .text          0x0000000000000000        0x0 c:/devkitpro/devkitarm/bin/../lib/gcc/arm-none-eabi/10.2.0/../../../../arm-none-eabi/lib\libg.a(lib_a-freer.o)
 .data          0x0000000000000000        0x0 c:/devkitpro/devkitarm/bin/../lib/gcc/arm-none-eabi/10.2.0/../../../../arm-none-eabi/lib\libg.a(lib_a-freer.o)
 .bss           0x0000000000000000        0x0 c:/devkitpro/devkitarm/bin/../lib/gcc/arm-none-eabi/10.2.0/../../../../arm-none-eabi/lib\libg.a(lib_a-freer.o)
 .text          0x0000000000000000        0x0 c:/devkitpro/devkitarm/bin/../lib/gcc/arm-none-eabi/10.2.0/../../../../arm-none-eabi/lib\libsysbase.a(sbrk.o)
 .data          0x0000000000000000        0x0 c:/devkitpro/devkitarm/bin/../lib/gcc/arm-none-eabi/10.2.0/../../../../arm-none-eabi/lib\libsysbase.a(sbrk.o)
 .bss           0x0000000000000000        0x0 c:/devkitpro/devkitarm/bin/../lib/gcc/arm-none-eabi/10.2.0/../../../../arm-none-eabi/lib\libsysbase.a(sbrk.o)
 .text          0x0000000000000000        0x0 c:/devkitpro/devkitarm/bin/../lib/gcc/arm-none-eabi/10.2.0/../../../../arm-none-eabi/lib\libsysbase.a(malloc_vars.o)
 .data          0x0000000000000000        0x0 c:/devkitpro/devkitarm/bin/../lib/gcc/arm-none-eabi/10.2.0/../../../../arm-none-eabi/lib\libsysbase.a(malloc_vars.o)
 .bss           0x0000000000000000        0x0 c:/devkitpro/devkitarm/bin/../lib/gcc/arm-none-eabi/10.2.0/../../../../arm-none-eabi/lib\libsysbase.a(malloc_vars.o)
 .text          0x0000000000000000        0x0 c:/devkitpro/devkitarm/bin/../lib/gcc/arm-none-eabi/10.2.0/../../../../arm-none-eabi/lib\libsysbase.a(syscall_support.o)
 .data          0x0000000000000000        0x0 c:/devkitpro/devkitarm/bin/../lib/gcc/arm-none-eabi/10.2.0/../../../../arm-none-eabi/lib\libsysbase.a(syscall_support.o)
 .bss           0x0000000000000000        0x0 c:/devkitpro/devkitarm/bin/../lib/gcc/arm-none-eabi/10.2.0/../../../../arm-none-eabi/lib\libsysbase.a(syscall_support.o)
 .text.__libc_lock_init
                0x0000000000000000       0x18 c:/devkitpro/devkitarm/bin/../lib/gcc/arm-none-eabi/10.2.0/../../../../arm-none-eabi/lib\libsysbase.a(syscall_support.o)
 .text.__libc_lock_acquire
                0x0000000000000000       0x18 c:/devkitpro/devkitarm/bin/../lib/gcc/arm-none-eabi/10.2.0/../../../../arm-none-eabi/lib\libsysbase.a(syscall_support.o)
 .text.__libc_lock_try_acquire
                0x0000000000000000       0x20 c:/devkitpro/devkitarm/bin/../lib/gcc/arm-none-eabi/10.2.0/../../../../arm-none-eabi/lib\libsysbase.a(syscall_support.o)
 .text.__libc_lock_release
                0x0000000000000000       0x18 c:/devkitpro/devkitarm/bin/../lib/gcc/arm-none-eabi/10.2.0/../../../../arm-none-eabi/lib\libsysbase.a(syscall_support.o)
 .text.__libc_lock_close
                0x0000000000000000       0x18 c:/devkitpro/devkitarm/bin/../lib/gcc/arm-none-eabi/10.2.0/../../../../arm-none-eabi/lib\libsysbase.a(syscall_support.o)
 .text.__libc_lock_init_recursive
                0x0000000000000000       0x18 c:/devkitpro/devkitarm/bin/../lib/gcc/arm-none-eabi/10.2.0/../../../../arm-none-eabi/lib\libsysbase.a(syscall_support.o)
 .text.__libc_lock_try_acquire_recursive
                0x0000000000000000       0x20 c:/devkitpro/devkitarm/bin/../lib/gcc/arm-none-eabi/10.2.0/../../../../arm-none-eabi/lib\libsysbase.a(syscall_support.o)
 .text.__libc_lock_close_recursive
                0x0000000000000000       0x18 c:/devkitpro/devkitarm/bin/../lib/gcc/arm-none-eabi/10.2.0/../../../../arm-none-eabi/lib\libsysbase.a(syscall_support.o)
 .text          0x0000000000000000        0x0 c:/devkitpro/devkitarm/bin/../lib/gcc/arm-none-eabi/10.2.0/../../../../arm-none-eabi/lib\libsysbase.a(getreent.o)
 .data          0x0000000000000000        0x0 c:/devkitpro/devkitarm/bin/../lib/gcc/arm-none-eabi/10.2.0/../../../../arm-none-eabi/lib\libsysbase.a(getreent.o)
 .bss           0x0000000000000000        0x0 c:/devkitpro/devkitarm/bin/../lib/gcc/arm-none-eabi/10.2.0/../../../../arm-none-eabi/lib\libsysbase.a(getreent.o)
 .text          0x0000000000000000        0x0 c:/devkitpro/devkitarm/bin/../lib/gcc/arm-none-eabi/10.2.0/../../../../arm-none-eabi/lib\libg.a(lib_a-impure.o)
 .data          0x0000000000000000        0x0 c:/devkitpro/devkitarm/bin/../lib/gcc/arm-none-eabi/10.2.0/../../../../arm-none-eabi/lib\libg.a(lib_a-impure.o)
 .bss           0x0000000000000000        0x0 c:/devkitpro/devkitarm/bin/../lib/gcc/arm-none-eabi/10.2.0/../../../../arm-none-eabi/lib\libg.a(lib_a-impure.o)
 .rodata._global_impure_ptr
                0x0000000000000000        0x4 c:/devkitpro/devkitarm/bin/../lib/gcc/arm-none-eabi/10.2.0/../../../../arm-none-eabi/lib\libg.a(lib_a-impure.o)
 .text          0x0000000000000000        0x0 c:/devkitpro/devkitarm/bin/../lib/gcc/arm-none-eabi/10.2.0/crtend.o
 .data          0x0000000000000000        0x0 c:/devkitpro/devkitarm/bin/../lib/gcc/arm-none-eabi/10.2.0/crtend.o
 .bss           0x0000000000000000        0x0 c:/devkitpro/devkitarm/bin/../lib/gcc/arm-none-eabi/10.2.0/crtend.o
 .text          0x0000000000000000        0x0 c:/devkitpro/devkitarm/bin/../lib/gcc/arm-none-eabi/10.2.0/crtn.o
 .data          0x0000000000000000        0x0 c:/devkitpro/devkitarm/bin/../lib/gcc/arm-none-eabi/10.2.0/crtn.o
 .bss           0x0000000000000000        0x0 c:/devkitpro/devkitarm/bin/../lib/gcc/arm-none-eabi/10.2.0/crtn.o

Memory Configuration

Name             Origin             Length             Attributes
rom              0x0000000008000000 0x0000000002000000
iwram            0x0000000003000000 0x0000000000008000
ewram            0x0000000002000000 0x0000000000040000
*default*        0x0000000000000000 0xffffffffffffffff

Linker script and memory map

                0x0000000008000000                __text_start = ORIGIN (rom)
                0x0000000002040000                __eheap_end = (ORIGIN (ewram) + LENGTH (ewram))
                0x0000000003000000                __iwram_start = ORIGIN (iwram)
                0x0000000003008000                __iwram_top = (ORIGIN (iwram) + LENGTH (iwram))
                0x0000000003007fa0                __sp_irq = (__iwram_top - 0x60)
                0x0000000003007f00                __sp_usr = (__sp_irq - 0xa0)
                0x0000000003007ff8                __irq_flags = 0x3007ff8
                0x0000000008000000                . = __text_start

.crt0           0x0000000008000000      0x210
 *(.crt0)
 .crt0          0x0000000008000000      0x210 c:/devkitpro/devkitarm/bin/../lib/gcc/arm-none-eabi/10.2.0/../../../../arm-none-eabi/lib/gba_crt0.o
                0x0000000008000000                _start
                0x00000000080000c4                __boot_method
                0x00000000080000c5                __slave_number
                0x00000000080000e0                start_vector
                0x0000000008000210                . = ALIGN (0x4)

.init           0x0000000008000210       0x18
 *(SORT_NONE(.init))
 .init          0x0000000008000210        0xc c:/devkitpro/devkitarm/bin/../lib/gcc/arm-none-eabi/10.2.0/crti.o
                0x0000000008000210                _init
 .init          0x000000000800021c        0xc c:/devkitpro/devkitarm/bin/../lib/gcc/arm-none-eabi/10.2.0/crtn.o

.plt            0x0000000008000228        0x0
 *(.plt)
                0x0000000008000228                . = ALIGN (0x4)

.text           0x0000000008000230     0xac30
 *(EXCLUDE_FILE(*.iwram*) .text*)
 .text.__do_global_dtors_aux
                0x0000000008000230       0x40 c:/devkitpro/devkitarm/bin/../lib/gcc/arm-none-eabi/10.2.0/crtbegin.o
 .text.frame_dummy
                0x0000000008000270       0x30 c:/devkitpro/devkitarm/bin/../lib/gcc/arm-none-eabi/10.2.0/crtbegin.o
 .text          0x00000000080002a0      0x180 loading.o
                0x00000000080002a4                load_header
                0x0000000008000330                fade_black
 .text          0x0000000008000420      0x950 character.o
                0x00000000080004a4                character_init
                0x0000000008000548                normal_update
                0x0000000008000c14                character_update
                0x0000000008000ce4                character_render
 .text          0x0000000008000d70       0xec engine.o
                0x0000000008000d70                init
                0x0000000008000e44                init_settings
 .text          0x0000000008000e5c     0x1cd4 core.o
                0x0000000008000e5c                pixtro_init
                0x0000000008000f18                pixtro_update
                0x0000000008001150                pixtro_render
                0x00000000080012f0                set_layer_visible
                0x000000000800135c                set_layer_priority
                0x0000000008001504                load_background
                0x00000000080015d8                load_background_tiles
                0x0000000008001904                set_foreground_count
                0x0000000008001938                finalize_layers
                0x0000000008001db4                move_to_level
                0x0000000008001e70                load_level_pack
                0x0000000008001f18                load_level_pack_async
                0x0000000008001fc0                async_loading
                0x000000000800223c                routine_on_fade
                0x0000000008002294                start_fading
                0x00000000080022d0                load_settings
                0x0000000008002398                save_settings
                0x0000000008002400                reset_settings
                0x0000000008002454                reset_file
                0x00000000080024c8                save_file
                0x0000000008002550                load_file
                0x0000000008002644                open_file
                0x0000000008002678                char_from_file
                0x00000000080026ac                short_from_file
                0x0000000008002720                int_from_file
                0x00000000080027a0                char_to_file
                0x00000000080027e0                short_to_file
                0x000000000800285c                int_to_file
                0x00000000080028d4                char_from_settings
                0x0000000008002908                short_from_settings
                0x000000000800297c                int_from_settings
                0x00000000080029fc                char_to_settings
                0x0000000008002a3c                short_to_settings
                0x0000000008002ab8                int_to_settings
 .text          0x0000000008002b30     0x1420 graphics.o
                0x0000000008002c64                load_sprite
                0x0000000008002f5c                load_anim_sprite
                0x0000000008003084                load_tileset
                0x00000000080030f0                load_obj_pal
                0x0000000008003164                load_bg_pal
                0x00000000080031d0                draw_affine_big
                0x0000000008003540                draw_affine
                0x00000000080038f8                draw
                0x0000000008003b38                begin_drawing
                0x0000000008003d98                init_drawing
                0x0000000008003e60                end_drawing
 .text          0x0000000008003f50      0x32c input.o
                0x0000000008003fa0                update_presses
                0x00000000080040b8                key_pressed
                0x0000000008004180                clear_buffer
                0x0000000008004200                clear_pressed
 .text          0x000000000800427c     0x17c0 load_data.o
                0x000000000800427c                set_loading_region
                0x00000000080042cc                set_entities_location
                0x0000000008004328                load_midground
                0x0000000008004414                load_entities
                0x000000000800495c                protect_cam
                0x0000000008004b40                copy_tiles
                0x0000000008004ecc                move_cam
                0x0000000008005800                reset_cam
 .text          0x0000000008005a3c       0xd0 main.o
                0x0000000008005a3c                main
 .text          0x0000000008005b0c      0x7e4 math.o
                0x0000000008005b0c                int_deg_sin
                0x0000000008005be4                int_deg_cos
                0x0000000008005c18                fixed_sqrt
                0x0000000008005d10                matrix_multiply
                0x0000000008005f20                matrix_identity
                0x0000000008005fa8                matrix_trans
                0x0000000008006008                matrix_trans_int
                0x0000000008006070                matrix_rot
                0x0000000008006100                matrix_scale
                0x0000000008006160                RNG
                0x0000000008006298                rng_seed
 .text          0x00000000080062f0      0x970 particles.o
                0x000000000800635c                add_particle_basic
                0x0000000008006510                add_particle
                0x0000000008006654                update_particles
                0x0000000008006bf4                ClearParticles
 .text          0x0000000008006c60      0xd40 physics.o
                0x0000000008006c60                load_tiletypes
                0x0000000008006ce4                get_block
                0x0000000008006db4                entity_physics
                0x0000000008007604                collide_rect
                0x0000000008007794                collide_entity
 .text          0x00000000080079a0      0x2e0 state_machine.o
                0x00000000080079a0                init_statemachine
                0x0000000008007a90                set_update
                0x0000000008007ad4                set_begin_state
                0x0000000008007b18                set_end_state
                0x0000000008007b5c                update_statemachine
 .text          0x0000000008007c80      0x140 C:/devkitPro/libgba/lib\libmm.a(mm_main.o)
                0x0000000008007c80                mpp_call_r7
                0x0000000008007c82                mpp_call_r1
                0x0000000008007c84                mpp_call_r2
                0x0000000008007c86                mpp_call_r3
                0x0000000008007c88                mmSetEventHandler
                0x0000000008007c90                mmInit
                0x0000000008007ce4                mmSetVBlankHandler
                0x0000000008007cea                mmFrame
 .text          0x0000000008007dc0      0x314 C:/devkitPro/libgba/lib\libmm.a(mm_effect.o)
                0x0000000008007dc0                mmResetEffects
                0x0000000008007dec                mmEffect
                0x0000000008007e02                mmEffectEx
                0x0000000008007f02                mmEffectActive
                0x0000000008007f36                mmEffectVolume
                0x0000000008007f52                mmEffectPanning
                0x0000000008007f66                mmEffectRate
                0x0000000008007f7a                mmEffectCancel
                0x0000000008007fb4                mmEffectRelease
                0x0000000008007fda                mmEffectScaleRate
                0x0000000008007fee                mmSetEffectsVolume
                0x0000000008007ffc                mmEffectCancelAll
                0x000000000800803c                mmUpdateEffects
 .text          0x00000000080080d4      0x1e0 C:/devkitPro/libgba/lib\libmm.a(mm_mixer_gba.o)
                0x00000000080080d4                mmMixerSetSource
                0x00000000080080e8                mmMixerSetRead
                0x00000000080080f6                mmMixerSetFreq
                0x0000000008008106                mmMixerMulFreq
                0x000000000800811a                mmMixerStopChannel
                0x000000000800812c                mmMixerChannelActive
                0x000000000800813e                mmMixerSetVolume
                0x000000000800814c                mmMixerSetPan
                0x000000000800815a                mmMixerInit
 .text          0x00000000080082b4       0x44 C:/devkitPro/libgba/lib\libmm.a(mm_init_default.o)
                0x00000000080082b4                mmInitDefault
 .text          0x00000000080082f8     0x1564 C:/devkitPro/libgba/lib\libmm.a(mm_mas.o)
                0x000000000800836c                mmStart
                0x000000000800838c                mmJingle
                0x0000000008008392                mmPlayModule
                0x000000000800845c                mmPause
                0x0000000008008478                mmResume
                0x0000000008008488                mmActive
                0x000000000800848e                mmActiveSub
                0x0000000008008494                mmSetModuleVolume
                0x00000000080084a4                mmSetJingleVolume
                0x00000000080084e0                mmGetPosition
                0x00000000080084e6                mmPosition
                0x0000000008008500                mmSetModuleTempo
                0x0000000008008532                mmSetModulePitch
                0x0000000008008574                mmStop
                0x000000000800863a                mppUpdateSub
                0x0000000008008796                mpp_Process_VolumeCommand
                0x00000000080089ce                mpp_Process_Effect
                0x000000000800911c                ST3_FREQTABLE
                0x000000000800953c                IT_PitchTable
 .text          0x000000000800985c      0x354 C:/devkitPro/libtonc/lib\libtonc.a(tonc_irq.o)
                0x000000000800985c                irq_init
                0x00000000080098a0                irq_set_master
                0x00000000080098cc                irq_set
                0x00000000080099f4                irq_add
                0x0000000008009a6c                irq_delete
                0x0000000008009b20                irq_enable
                0x0000000008009b68                irq_disable
 .text          0x0000000008009bb0       0xbc C:/devkitPro/libtonc/lib\libtonc.a(tonc_oam.o)
                0x0000000008009bb0                oam_init
                0x0000000008009bf8                obj_copy
                0x0000000008009c18                obj_hide_multi
                0x0000000008009c40                obj_unhide_multi
 .text          0x0000000008009c6c       0xa8 C:/devkitPro/libtonc/lib\libtonc.a(tonc_input.o)
                0x0000000008009c6c                key_poll
                0x0000000008009cc0                key_wait_till_hit
                0x0000000008009ce4                key_repeat
                0x0000000008009cf0                key_repeat_mask
                0x0000000008009d00                key_repeat_limits
 .text          0x0000000008009d14       0x8c C:/devkitPro/libtonc/lib\libtonc.a(tonc_bios.o)
                0x0000000008009d14                SoftReset
                0x0000000008009d18                RegisterRamReset
                0x0000000008009d1c                Halt
                0x0000000008009d20                Stop
                0x0000000008009d24                IntrWait
                0x0000000008009d28                VBlankIntrWait
                0x0000000008009d2c                Div
                0x0000000008009d30                DivArm
                0x0000000008009d34                Sqrt
                0x0000000008009d38                ArcTan
                0x0000000008009d3c                ArcTan2
                0x0000000008009d40                CpuSet
                0x0000000008009d44                CpuFastSet
                0x0000000008009d48                BiosCheckSum
                0x0000000008009d4c                BgAffineSet
                0x0000000008009d50                ObjAffineSet
                0x0000000008009d54                BitUnPack
                0x0000000008009d58                LZ77UnCompWram
                0x0000000008009d5c                LZ77UnCompVram
                0x0000000008009d60                HuffUnComp
                0x0000000008009d64                RLUnCompWram
                0x0000000008009d68                RLUnCompVram
                0x0000000008009d6c                Diff8bitUnFilterWram
                0x0000000008009d70                Diff8bitUnFilterVram
                0x0000000008009d74                Diff16bitUnFilter
                0x0000000008009d78                SoundBias
                0x0000000008009d7c                SoundDriverInit
                0x0000000008009d80                SoundDriverMode
                0x0000000008009d84                SoundDriverMain
                0x0000000008009d88                SoundDriverVSync
                0x0000000008009d8c                SoundChannelClear
                0x0000000008009d90                MidiKey2Freq
                0x0000000008009d94                MultiBoot
                0x0000000008009d98                SoundDriverVSyncOff
                0x0000000008009d9c                SoundDriverVSyncOn
 .text          0x0000000008009da0      0x148 c:/devkitpro/devkitarm/bin/../lib/gcc/arm-none-eabi/10.2.0\libgcc.a(_divsi3.o)
                0x0000000008009da0                __divsi3
                0x0000000008009da0                __aeabi_idiv
                0x0000000008009ec8                __aeabi_idivmod
 .text          0x0000000008009ee8        0x4 c:/devkitpro/devkitarm/bin/../lib/gcc/arm-none-eabi/10.2.0\libgcc.a(_dvmd_tls.o)
                0x0000000008009ee8                __aeabi_idiv0
                0x0000000008009ee8                __aeabi_ldiv0
 .text          0x0000000008009eec       0x3c c:/devkitpro/devkitarm/bin/../lib/gcc/arm-none-eabi/10.2.0\libgcc.a(_call_via_rX.o)
                0x0000000008009eec                _call_via_r0
                0x0000000008009ef0                _call_via_r1
                0x0000000008009ef4                _call_via_r2
                0x0000000008009ef8                _call_via_r3
                0x0000000008009efc                _call_via_r4
                0x0000000008009f00                _call_via_r5
                0x0000000008009f04                _call_via_r6
                0x0000000008009f08                _call_via_r7
                0x0000000008009f0c                _call_via_r8
                0x0000000008009f10                _call_via_r9
                0x0000000008009f14                _call_via_sl
                0x0000000008009f18                _call_via_fp
                0x0000000008009f1c                _call_via_ip
                0x0000000008009f20                _call_via_sp
                0x0000000008009f24                _call_via_lr
 .text.__libc_init_array
                0x0000000008009f28       0x88 c:/devkitpro/devkitarm/bin/../lib/gcc/arm-none-eabi/10.2.0/../../../../arm-none-eabi/lib\libg.a(lib_a-init.o)
                0x0000000008009f28                __libc_init_array
 .text.malloc   0x0000000008009fb0       0x1c c:/devkitpro/devkitarm/bin/../lib/gcc/arm-none-eabi/10.2.0/../../../../arm-none-eabi/lib\libg.a(lib_a-malloc.o)
                0x0000000008009fb0                malloc
 .text.free     0x0000000008009fcc       0x1c c:/devkitpro/devkitarm/bin/../lib/gcc/arm-none-eabi/10.2.0/../../../../arm-none-eabi/lib\libg.a(lib_a-malloc.o)
                0x0000000008009fcc                free
 .text._malloc_r
                0x0000000008009fe8      0x800 c:/devkitpro/devkitarm/bin/../lib/gcc/arm-none-eabi/10.2.0/../../../../arm-none-eabi/lib\libg.a(lib_a-mallocr.o)
                0x0000000008009fe8                _malloc_r
 .text.memcpy   0x000000000800a7e8      0x120 c:/devkitpro/devkitarm/bin/../lib/gcc/arm-none-eabi/10.2.0/../../../../arm-none-eabi/lib\libg.a(lib_a-memcpy-stub.o)
                0x000000000800a7e8                memcpy
 .text.__malloc_lock
                0x000000000800a908       0x18 c:/devkitpro/devkitarm/bin/../lib/gcc/arm-none-eabi/10.2.0/../../../../arm-none-eabi/lib\libg.a(lib_a-mlock.o)
                0x000000000800a908                __malloc_lock
 .text.__malloc_unlock
                0x000000000800a920       0x18 c:/devkitpro/devkitarm/bin/../lib/gcc/arm-none-eabi/10.2.0/../../../../arm-none-eabi/lib\libg.a(lib_a-mlock.o)
                0x000000000800a920                __malloc_unlock
 .text._malloc_trim_r
                0x000000000800a938      0x100 c:/devkitpro/devkitarm/bin/../lib/gcc/arm-none-eabi/10.2.0/../../../../arm-none-eabi/lib\libg.a(lib_a-freer.o)
                0x000000000800a938                _malloc_trim_r
 .text._free_r  0x000000000800aa38      0x2e0 c:/devkitpro/devkitarm/bin/../lib/gcc/arm-none-eabi/10.2.0/../../../../arm-none-eabi/lib\libg.a(lib_a-freer.o)
                0x000000000800aa38                _free_r
 .text._sbrk_r  0x000000000800ad18       0x7c c:/devkitpro/devkitarm/bin/../lib/gcc/arm-none-eabi/10.2.0/../../../../arm-none-eabi/lib\libsysbase.a(sbrk.o)
                0x000000000800ad18                _sbrk_r
 .text.__libc_lock_acquire_recursive
                0x000000000800ad94       0x18 c:/devkitpro/devkitarm/bin/../lib/gcc/arm-none-eabi/10.2.0/../../../../arm-none-eabi/lib\libsysbase.a(syscall_support.o)
                0x000000000800ad94                __libc_lock_acquire_recursive
 .text.__libc_lock_release_recursive
                0x000000000800adac       0x18 c:/devkitpro/devkitarm/bin/../lib/gcc/arm-none-eabi/10.2.0/../../../../arm-none-eabi/lib\libsysbase.a(syscall_support.o)
                0x000000000800adac                __libc_lock_release_recursive
 .text.__getreent
                0x000000000800adc4       0x24 c:/devkitpro/devkitarm/bin/../lib/gcc/arm-none-eabi/10.2.0/../../../../arm-none-eabi/lib\libsysbase.a(getreent.o)
                0x000000000800adc4                __getreent
 .text.__getreent.__stub
                0x000000000800ade8       0x5c linker stubs
 *(.gnu.linkonce.t.*)
 *(.text.*personality*)
 *(.gnu.warning)
 *(.glue_7t)
 .glue_7t       0x000000000800ae60        0x0 linker stubs
 *(.glue_7)
 .glue_7        0x000000000800ae60        0x0 linker stubs
 *(.vfp11_veneer)
 .vfp11_veneer  0x000000000800ae60        0x0 linker stubs
                0x000000000800ae60                . = ALIGN (0x4)
                0x000000000800ae60                __text_end = .

.v4_bx          0x000000000800ae60        0x0
 .v4_bx         0x000000000800ae60        0x0 linker stubs

.iplt           0x000000000800ae60        0x0
 .iplt          0x000000000800ae60        0x0 c:/devkitpro/devkitarm/bin/../lib/gcc/arm-none-eabi/10.2.0/../../../../arm-none-eabi/lib/gba_crt0.o

.fini           0x000000000800ae60       0x18
 *(.fini)
 .fini          0x000000000800ae60        0xc c:/devkitpro/devkitarm/bin/../lib/gcc/arm-none-eabi/10.2.0/crti.o
                0x000000000800ae60                _fini
 .fini          0x000000000800ae6c        0xc c:/devkitpro/devkitarm/bin/../lib/gcc/arm-none-eabi/10.2.0/crtn.o
                0x000000000800ae78                . = ALIGN (0x4)

.rodata         0x000000000800ae78    0x35818
 *(.rodata)
 .rodata        0x000000000800ae78      0x26c levels.o
                0x000000000800ae78                TILESET_all
                0x000000000800aef8                TILECOLL_all
                0x000000000800af0c                TILE_MAPPING_all
                0x000000000800af2c                LVL_test_a
                0x000000000800affc                LVL_test_b
                0x000000000800b0c4                PACK_test
 .rodata        0x000000000800b0e4    0x11850 sprites.o
                0x000000000800b0e4                PAL_character
                0x000000000800b104                PAL_extra_0
                0x000000000800b124                PAL_extra_1
                0x000000000800b144                PAL_extra_2
                0x000000000800b164                PAL_extra_3
                0x000000000800b184                PAL_test
                0x000000000800b1a4                BGTILE_sample_ase
                0x00000000080131a4                BG_sample_ase
                0x00000000080139a4                BGPACK_sample_ase
                0x00000000080139ac                BGTILE_sample_png
                0x000000000801b9ac                BG_sample_png
                0x000000000801c1ac                BGPACK_sample_png
                0x000000000801c1b4                SPR_char_idle
                0x000000000801c3b4                SPR_char_roll
                0x000000000801c5b4                SPR_logo
                0x000000000801c634                SPR_testone
                0x000000000801c834                particles
 .rodata        0x000000000801c934       0x90 graphics.o
                0x000000000801c934                shape2size
                0x000000000801c964                shape_width
                0x000000000801c994                shape_height
 .rodata        0x000000000801c9c4      0x16c math.o
                0x000000000801c9c4                sine_table
 .rodata        0x000000000801cb30       0x38 C:/devkitPro/libtonc/lib\libtonc.a(tonc_irq.o)
 *all.rodata*(*)
 *(.roda)
 *(.rodata.*)
 .rodata.soundbank_bin
                0x000000000801cb68    0x23b28 soundbank.bin.o
                0x000000000801cb68                soundbank_bin
                0x0000000008040690                soundbank_bin_end
 *(.gnu.linkonce.r*)
                0x0000000008040690                . = ALIGN (0x4)

.ARM.extab
 *(.ARM.extab* .gnu.linkonce.armextab.*)
                0x0000000008040690                __exidx_start = .

.ARM.exidx
 *(.ARM.exidx* .gnu.linkonce.armexidx.*)
                0x0000000008040690                __exidx_end = .

.ctors          0x0000000008040690        0x0
 *crtbegin.o(.ctors)
 *(EXCLUDE_FILE(*crtend.o) .ctors)
 *(SORT_BY_NAME(.ctors.*))
 *(.ctors)
                0x0000000008040690                . = ALIGN (0x4)

.dtors          0x0000000008040690        0x0
 *crtbegin.o(.dtors)
 *(EXCLUDE_FILE(*crtend.o) .dtors)
 *(SORT_BY_NAME(.dtors.*))
 *(.dtors)
                0x0000000008040690                . = ALIGN (0x4)

.eh_frame       0x0000000008040690        0x4
 *(.eh_frame)
 .eh_frame      0x0000000008040690        0x0 c:/devkitpro/devkitarm/bin/../lib/gcc/arm-none-eabi/10.2.0/crtbegin.o
 .eh_frame      0x0000000008040690        0x4 c:/devkitpro/devkitarm/bin/../lib/gcc/arm-none-eabi/10.2.0/crtend.o
                0x0000000008040694                . = ALIGN (0x4)

.gcc_except_table
                0x0000000008040694        0x0
 *(.gcc_except_table)
                0x0000000008040694                . = ALIGN (0x4)
                0x0000000008040694                __iwram_lma = .

.iwram          0x0000000003000000     0x1504 load address 0x0000000008040694
                0x0000000003000000                __iwram_start__ = ABSOLUTE (.)
 *(.iwram .iwram*)
 .iwram         0x0000000003000000        0x8 C:/devkitPro/libgba/lib\libmm.a(mm_main.o)
                0x0000000003000000                mpp_call_r7i
                0x0000000003000002                mpp_call_r2i
                0x0000000003000004                mpp_call_r1i
 .iwram         0x0000000003000008      0x648 C:/devkitPro/libgba/lib\libmm.a(mm_mas_arm.o)
                0x0000000003000008                mmAllocChannel
                0x000000000300007c                mmReadPattern
                0x0000000003000168                mmUpdateChannel_T0
                0x00000000030003a8                mmUpdateChannel_TN
                0x0000000003000548                mmGetPeriod
                0x000000000300058c                note_table_oct
                0x00000000030005aa                note_table_mod
 .iwram         0x0000000003000650      0x838 C:/devkitPro/libgba/lib\libmm.a(mm_mixer_gba.o)
                0x0000000003000654                mmVBlank
                0x00000000030006d8                mmMixerMix
 .iwram         0x0000000003000e88      0x554 C:/devkitPro/libgba/lib\libmm.a(mm_mas.o)
                0x0000000003000e88                mppProcessTick
                0x0000000003000f6c                mpp_Channel_NewNote
                0x000000000300104c                mpp_Update_ACHN_notest
 .iwram         0x00000000030013dc       0x38 C:/devkitPro/libtonc/lib\libtonc.a(tonc_memcpy.o)
                0x00000000030013dc                memcpy32
 .iwram         0x0000000003001414       0xa4 C:/devkitPro/libtonc/lib\libtonc.a(tonc_isr_master.o)
                0x0000000003001414                isr_master
 .iwram         0x00000000030014b8       0x4c C:/devkitPro/libtonc/lib\libtonc.a(tonc_memset.o)
                0x00000000030014b8                memset32
 *iwram.*(.text* .data*)
                0x0000000003001504                . = ALIGN (0x4)
                0x0000000003001504                __iwram_end__ = ABSOLUTE (.)
                0x0000000008041b98                __data_lma = (__iwram_lma + SIZEOF (.iwram))

.rel.dyn        0x0000000003001504        0x0 load address 0x0000000008041b98
 .rel.iplt      0x0000000003001504        0x0 c:/devkitpro/devkitarm/bin/../lib/gcc/arm-none-eabi/10.2.0/../../../../arm-none-eabi/lib/gba_crt0.o

.bss            0x0000000003001504     0x2c7c
                0x0000000003001504                __bss_start = ABSOLUTE (.)
                0x0000000003001504                __bss_start__ = ABSOLUTE (.)
 *(.dynbss)
 *(.gnu.linkonce.b*)
 *(.bss*)
 .bss.completed.1
                0x0000000003001504        0x1 c:/devkitpro/devkitarm/bin/../lib/gcc/arm-none-eabi/10.2.0/crtbegin.o
 *fill*         0x0000000003001505        0x3 
 .bss.object.0  0x0000000003001508       0x18 c:/devkitpro/devkitarm/bin/../lib/gcc/arm-none-eabi/10.2.0/crtbegin.o
 .bss           0x0000000003001520       0x14 character.o
                0x0000000003001520                char_machine
                0x0000000003001530                roll_angle
 .bss           0x0000000003001534      0x9e0 core.o
                0x0000000003001534                layer_count
                0x0000000003001538                layer_line
                0x0000000003001554                layer_index
                0x0000000003001558                bg_tile_allowance
                0x000000000300155c                layers
                0x000000000300169c                foreground_count
                0x00000000030016a0                max_entities
                0x00000000030016a4                entity_inits
                0x0000000003001724                entities
                0x0000000003001a24                entity_update
                0x0000000003001aa4                entity_render
                0x0000000003001b24                level_meta
                0x0000000003001ba4                loaded_levels_a
                0x0000000003001ca4                loaded_levels_b
                0x0000000003001da4                loading_levelpack
                0x0000000003001da8                loading_routine
                0x0000000003001db4                onfade_function
                0x0000000003001db8                onfade_routine
                0x0000000003001dc4                game_life
                0x0000000003001dc8                levelpack_life
                0x0000000003001dcc                level_life
                0x0000000003001dd0                game_freeze
                0x0000000003001dd4                engine_flags
                0x0000000003001dd8                debug_engine_flags
                0x0000000003001ddc                debug_game_flags
                0x0000000003001de0                current_level_index
                0x0000000003001de4                fade_timer
                0x0000000003001de8                save_data
                0x0000000003001ee8                settings_file
                0x0000000003001f08                save_file_number
                0x0000000003001f0c                custom_update
                0x0000000003001f10                custom_render
 .bss           0x0000000003001f14      0xe21 graphics.o
                0x0000000003001f14                cam_x
                0x0000000003001f18                cam_y
                0x0000000003001f1c                prev_cam_x
                0x0000000003001f20                prev_cam_y
                0x0000000003001f24                sprite_count
                0x0000000003001f28                prev_sprite_count
                0x0000000003001f2c                affine_count
                0x0000000003001f30                colorbank
                0x0000000003002330                shapes
                0x0000000003002430                indexes
                0x0000000003002530                ordered
                0x0000000003002630                anim_bank
                0x0000000003002730                anim_meta
                0x0000000003002830                wait_to_load
                0x0000000003002930                obj_buffer
                0x0000000003002d30                sprite_pointer
                0x0000000003002d34                is_rendering
 *fill*         0x0000000003002d35        0x3 
 .bss           0x0000000003002d38       0x28 input.o
                0x0000000003002d38                last_pressed
 .bss           0x0000000003002d60      0x310 load_data.o
                0x0000000003002d60                lvl_info
                0x0000000003002d64                level_toload
                0x0000000003002d68                unloaded_entities
                0x0000000003002e68                unload_index
                0x0000000003002e6c                test_values
                0x000000000300306c                level_loading
 .bss           0x0000000003003070      0x484 particles.o
                0x0000000003003070                particle_data
                0x00000000030034f0                lastParticle
 .bss           0x00000000030034f4      0x414 physics.o
                0x00000000030034f4                tile_types
                0x00000000030038f4                lvl_width
                0x00000000030038f8                lvl_height
                0x00000000030038fc                loading_width
                0x0000000003003900                loading_height
                0x0000000003003904                tileset_data
 .bss           0x0000000003003908       0x20 C:/devkitPro/libgba/lib\libmm.a(mm_main.o)
                0x0000000003003908                mmCallback
                0x000000000300390c                mmModuleCount
                0x0000000003003910                mmModuleBank
                0x0000000003003914                mmSampleBank
                0x0000000003003918                mm_ch_mask
                0x000000000300391c                mm_vblank_function
                0x0000000003003920                mmInitialized
                0x0000000003003924                mp_solution
 .bss           0x0000000003003928       0x2d C:/devkitPro/libgba/lib\libmm.a(mm_effect.o)
                0x000000000300394c                mm_sfx_bitmask
                0x0000000003003950                mm_sfx_clearmask
 *fill*         0x0000000003003955        0x3 
 .bss           0x0000000003003958      0x1bc C:/devkitPro/libgba/lib\libmm.a(mm_mixer_gba.o)
                0x0000000003003958                mp_writepos
                0x0000000003003960                mm_mixchannels
                0x0000000003003968                mm_mixlen
                0x000000000300397c                mm_bpmdv
                0x0000000003003980                mp_mix_seg
 .bss           0x0000000003003b14      0x420 C:/devkitPro/libgba/lib\libmm.a(mm_init_default.o)
 .bss           0x0000000003003f34      0x148 C:/devkitPro/libgba/lib\libmm.a(mm_mas.o)
                0x0000000003003f34                mmLayerMain
                0x0000000003003f6c                mmLayerSub
                0x0000000003003fa4                mpp_vars
                0x0000000003003fb4                mpp_layerp
                0x0000000003003fb8                mpp_channels
                0x0000000003003fc8                mpp_nchannels
                0x0000000003003fc9                mpp_clayer
                0x0000000003003fcc                mm_achannels
                0x0000000003003fd0                mm_pchannels
                0x0000000003003fd4                mm_num_mch
                0x0000000003003fd8                mm_num_ach
                0x0000000003003fdc                mm_schannels
 .bss           0x000000000300407c        0x4 C:/devkitPro/libtonc/lib\libtonc.a(tonc_input.o)
                0x000000000300407c                __key_curr
                0x000000000300407e                __key_prev
 .bss.__malloc_current_mallinfo
                0x0000000003004080       0x28 c:/devkitpro/devkitarm/bin/../lib/gcc/arm-none-eabi/10.2.0/../../../../arm-none-eabi/lib\libg.a(lib_a-mallocr.o)
                0x0000000003004080                __malloc_current_mallinfo
 .bss.__malloc_max_sbrked_mem
                0x00000000030040a8        0x4 c:/devkitpro/devkitarm/bin/../lib/gcc/arm-none-eabi/10.2.0/../../../../arm-none-eabi/lib\libg.a(lib_a-mallocr.o)
                0x00000000030040a8                __malloc_max_sbrked_mem
 .bss.__malloc_max_total_mem
                0x00000000030040ac        0x4 c:/devkitpro/devkitarm/bin/../lib/gcc/arm-none-eabi/10.2.0/../../../../arm-none-eabi/lib\libg.a(lib_a-mallocr.o)
                0x00000000030040ac                __malloc_max_total_mem
 .bss.__malloc_top_pad
                0x00000000030040b0        0x4 c:/devkitpro/devkitarm/bin/../lib/gcc/arm-none-eabi/10.2.0/../../../../arm-none-eabi/lib\libg.a(lib_a-mallocr.o)
                0x00000000030040b0                __malloc_top_pad
 .bss.heap_start.0
                0x00000000030040b4        0x4 c:/devkitpro/devkitarm/bin/../lib/gcc/arm-none-eabi/10.2.0/../../../../arm-none-eabi/lib\libsysbase.a(sbrk.o)
 .bss.fake_heap_end
                0x00000000030040b8        0x4 c:/devkitpro/devkitarm/bin/../lib/gcc/arm-none-eabi/10.2.0/../../../../arm-none-eabi/lib\libsysbase.a(malloc_vars.o)
                0x00000000030040b8                fake_heap_end
 .bss.fake_heap_start
                0x00000000030040bc        0x4 c:/devkitpro/devkitarm/bin/../lib/gcc/arm-none-eabi/10.2.0/../../../../arm-none-eabi/lib\libsysbase.a(malloc_vars.o)
                0x00000000030040bc                fake_heap_start
 .bss.__syscalls
                0x00000000030040c0       0x48 c:/devkitpro/devkitarm/bin/../lib/gcc/arm-none-eabi/10.2.0/../../../../arm-none-eabi/lib\libsysbase.a(syscall_support.o)
                0x00000000030040c0                __syscalls
 *(COMMON)
 COMMON         0x0000000003004108       0x78 C:/devkitPro/libtonc/lib\libtonc.a(tonc_irq.o)
                0x0000000003004108                __isr_table
                0x0000000003004180                . = ALIGN (0x4)
                0x0000000003004180                __bss_end__ = ABSOLUTE (.)

.data           0x0000000003004180      0x8a0 load address 0x0000000008041b98
                0x0000000003004180                __data_start__ = ABSOLUTE (.)
 *(.data*)
 .data          0x0000000003004180        0x8 graphics.o
                0x0000000003004180                drawing_flags
                0x0000000003004184                obj_aff_buffer
 .data          0x0000000003004188        0xc math.o
                0x0000000003004188                s1
                0x000000000300418c                s2
                0x0000000003004190                s3
 .data          0x0000000003004194        0x8 C:/devkitPro/libtonc/lib\libtonc.a(tonc_input.o)
                0x0000000003004194                __key_rpt
 .data.__malloc_av_
                0x000000000300419c      0x408 c:/devkitpro/devkitarm/bin/../lib/gcc/arm-none-eabi/10.2.0/../../../../arm-none-eabi/lib\libg.a(lib_a-mallocr.o)
                0x000000000300419c                __malloc_av_
 .data.__malloc_sbrk_base
                0x00000000030045a4        0x4 c:/devkitpro/devkitarm/bin/../lib/gcc/arm-none-eabi/10.2.0/../../../../arm-none-eabi/lib\libg.a(lib_a-mallocr.o)
                0x00000000030045a4                __malloc_sbrk_base
 .data.__malloc_trim_threshold
                0x00000000030045a8        0x4 c:/devkitpro/devkitarm/bin/../lib/gcc/arm-none-eabi/10.2.0/../../../../arm-none-eabi/lib\libg.a(lib_a-mallocr.o)
                0x00000000030045a8                __malloc_trim_threshold
 .data.__malloc_recursive_mutex
                0x00000000030045ac        0xc c:/devkitpro/devkitarm/bin/../lib/gcc/arm-none-eabi/10.2.0/../../../../arm-none-eabi/lib\libg.a(lib_a-mlock.o)
 .data._impure_ptr
                0x00000000030045b8        0x4 c:/devkitpro/devkitarm/bin/../lib/gcc/arm-none-eabi/10.2.0/../../../../arm-none-eabi/lib\libg.a(lib_a-impure.o)
                0x00000000030045b8                _impure_ptr
 *fill*         0x00000000030045bc        0x4 ff
 .data.impure_data
                0x00000000030045c0      0x460 c:/devkitpro/devkitarm/bin/../lib/gcc/arm-none-eabi/10.2.0/../../../../arm-none-eabi/lib\libg.a(lib_a-impure.o)
 *(.gnu.linkonce.d*)
                0x0000000003004a20                . = ALIGN (0x4)
                0x0000000008042438                __preinit_lma = (__data_lma + SIZEOF (.data))

.igot.plt       0x0000000003004a20        0x0 load address 0x0000000008042438
 .igot.plt      0x0000000003004a20        0x0 c:/devkitpro/devkitarm/bin/../lib/gcc/arm-none-eabi/10.2.0/../../../../arm-none-eabi/lib/gba_crt0.o

.preinit_array  0x0000000003004a20        0x0 load address 0x0000000008042438
                0x0000000003004a20                __preinit_array_start = ABSOLUTE (.)
 *(.preinit_array)
                0x0000000003004a20                __preinit_array_end = ABSOLUTE (.)
                0x0000000008042438                __init_lma = (__preinit_lma + SIZEOF (.preinit_array))

.init_array     0x0000000003004a20        0x4 load address 0x0000000008042438
                0x0000000003004a20                __init_array_start = ABSOLUTE (.)
 *(SORT_BY_NAME(.init_array.*))
 *(.init_array)
 .init_array    0x0000000003004a20        0x4 c:/devkitpro/devkitarm/bin/../lib/gcc/arm-none-eabi/10.2.0/crtbegin.o
                0x0000000003004a24                __init_array_end = ABSOLUTE (.)
                0x000000000804243c                __fini_lma = (__init_lma + SIZEOF (.init_array))

.fini_array     0x0000000003004a24        0x4 load address 0x000000000804243c
                0x0000000003004a24                __fini_array_start = ABSOLUTE (.)
 *(SORT_BY_NAME(.fini_array.*))
 *(.fini_array)
 .fini_array    0x0000000003004a24        0x4 c:/devkitpro/devkitarm/bin/../lib/gcc/arm-none-eabi/10.2.0/crtbegin.o
                0x0000000003004a28                __fini_array_end = ABSOLUTE (.)
                0x0000000008042440                __jcr_lma = (__fini_lma + SIZEOF (.fini_array))

.jcr            0x0000000003004a28        0x0 load address 0x0000000008042440
 *(.jcr)
                0x0000000003004a28                __data_end__ = ABSOLUTE (.)
                0x0000000008042440                __iwram_overlay_lma = (__jcr_lma + SIZEOF (.jcr))
                0x0000000003004a28                __iwram_overlay_start = .

.iwram0         0x0000000003004a28        0x0 load address 0x0000000008042440
 *(.iwram0)
                0x0000000003004a28                . = ALIGN (0x4)
                0x0000000008042440                PROVIDE (__load_start_iwram0 = LOADADDR (.iwram0))
                0x0000000008042440                PROVIDE (__load_stop_iwram0 = (LOADADDR (.iwram0) + SIZEOF (.iwram0)))

.iwram1         0x0000000003004a28        0x0
 *(.iwram1)
                0x0000000003004a28                . = ALIGN (0x4)
                [!provide]                        PROVIDE (__load_start_iwram1 = LOADADDR (.iwram1))
                [!provide]                        PROVIDE (__load_stop_iwram1 = (LOADADDR (.iwram1) + SIZEOF (.iwram1)))

.iwram2         0x0000000003004a28        0x0
 *(.iwram2)
                0x0000000003004a28                . = ALIGN (0x4)
                [!provide]                        PROVIDE (__load_start_iwram2 = LOADADDR (.iwram2))
                [!provide]                        PROVIDE (__load_stop_iwram2 = (LOADADDR (.iwram2) + SIZEOF (.iwram2)))

.iwram3         0x0000000003004a28        0x0
 *(.iwram3)
                0x0000000003004a28                . = ALIGN (0x4)
                [!provide]                        PROVIDE (__load_start_iwram3 = LOADADDR (.iwram3))
                [!provide]                        PROVIDE (__load_stop_iwram3 = (LOADADDR (.iwram3) + SIZEOF (.iwram3)))

.iwram4         0x0000000003004a28        0x0
 *(.iwram4)
                0x0000000003004a28                . = ALIGN (0x4)
                [!provide]                        PROVIDE (__load_start_iwram4 = LOADADDR (.iwram4))
                [!provide]                        PROVIDE (__load_stop_iwram4 = (LOADADDR (.iwram4) + SIZEOF (.iwram4)))

.iwram5         0x0000000003004a28        0x0
 *(.iwram5)
                0x0000000003004a28                . = ALIGN (0x4)
                [!provide]                        PROVIDE (__load_start_iwram5 = LOADADDR (.iwram5))
                [!provide]                        PROVIDE (__load_stop_iwram5 = (LOADADDR (.iwram5) + SIZEOF (.iwram5)))

.iwram6         0x0000000003004a28        0x0
 *(.iwram6)
                0x0000000003004a28                . = ALIGN (0x4)
                [!provide]                        PROVIDE (__load_start_iwram6 = LOADADDR (.iwram6))
                [!provide]                        PROVIDE (__load_stop_iwram6 = (LOADADDR (.iwram6) + SIZEOF (.iwram6)))

.iwram7         0x0000000003004a28        0x0
 *(.iwram7)
                0x0000000003004a28                . = ALIGN (0x4)
                [!provide]                        PROVIDE (__load_start_iwram7 = LOADADDR (.iwram7))
                [!provide]                        PROVIDE (__load_stop_iwram7 = (LOADADDR (.iwram7) + SIZEOF (.iwram7)))

.iwram8         0x0000000003004a28        0x0
 *(.iwram8)
                0x0000000003004a28                . = ALIGN (0x4)
                [!provide]                        PROVIDE (__load_start_iwram8 = LOADADDR (.iwram8))
                [!provide]                        PROVIDE (__load_stop_iwram8 = (LOADADDR (.iwram8) + SIZEOF (.iwram8)))

.iwram9         0x0000000003004a28        0x0
 *(.iwram9)
                0x0000000003004a28                . = ALIGN (0x4)
                [!provide]                        PROVIDE (__load_start_iwram9 = LOADADDR (.iwram9))
                [!provide]                        PROVIDE (__load_stop_iwram9 = (LOADADDR (.iwram9) + SIZEOF (.iwram9)))
                0x0000000003004a28                __iwram_overlay_end = .
                0x0000000008042440                __ewram_lma = (__iwram_overlay_lma + (__iwram_overlay_end - __iwram_overlay_start))
                0x0000000003004a28                __iheap_start = .
                0x0000000002000000                __ewram_start = ORIGIN (ewram)

.ewram          0x0000000002000000        0x0 load address 0x0000000008042440
 *(.ewram*)
                0x0000000002000000                . = ALIGN (0x4)
                0x0000000002000000                __ewram_end = ABSOLUTE (.)
                0x0000000008042440                __pad_lma = (__ewram_lma + SIZEOF (.ewram))

.sbss           0x0000000002000000        0x0
                0x0000000002000000                __sbss_start__ = ABSOLUTE (.)
 *(.sbss*)
                0x0000000002000000                . = ALIGN (0x4)
                0x0000000002000000                __sbss_end__ = ABSOLUTE (.)
                0x0000000002000000                __end__ = ABSOLUTE (.)
                0x0000000002000000                __eheap_start = ABSOLUTE (.)

.pad            0x0000000002000000        0x8 load address 0x0000000008042440
                0x0000000002000000        0x4 LONG 0x52416b64
                0x0000000002000004        0x4 LONG 0x4d
                0x0000000002000008                . = ALIGN (0x4)
                0x0000000008042448                __rom_end__ = (__pad_lma + SIZEOF (.pad))

.stab
 *(.stab)

.stabstr
 *(.stabstr)

.stab.excl
 *(.stab.excl)

.stab.exclstr
 *(.stab.exclstr)

.stab.index
 *(.stab.index)

.stab.indexstr
 *(.stab.indexstr)

.comment        0x0000000000000000       0x45
 *(.comment)
 .comment       0x0000000000000000       0x23 c:/devkitpro/devkitarm/bin/../lib/gcc/arm-none-eabi/10.2.0/crtbegin.o
                                         0x24 (size before relaxing)
 .comment       0x0000000000000023       0x24 character.o
 .comment       0x0000000000000023       0x24 engine.o
 .comment       0x0000000000000023       0x24 levels.o
 .comment       0x0000000000000023       0x24 sprites.o
 .comment       0x0000000000000023       0x24 core.o
 .comment       0x0000000000000023       0x24 graphics.o
 .comment       0x0000000000000023       0x24 input.o
 .comment       0x0000000000000023       0x24 load_data.o
 .comment       0x0000000000000023       0x24 main.o
 .comment       0x0000000000000023       0x24 math.o
 .comment       0x0000000000000023       0x24 particles.o
 .comment       0x0000000000000023       0x24 physics.o
 .comment       0x0000000000000023       0x24 state_machine.o
 .comment       0x0000000000000023       0x22 C:/devkitPro/libtonc/lib\libtonc.a(tonc_irq.o)
                                         0x23 (size before relaxing)
 .comment       0x0000000000000045       0x23 C:/devkitPro/libtonc/lib\libtonc.a(tonc_oam.o)
 .comment       0x0000000000000045       0x23 C:/devkitPro/libtonc/lib\libtonc.a(tonc_input.o)
 .comment       0x0000000000000045       0x24 c:/devkitpro/devkitarm/bin/../lib/gcc/arm-none-eabi/10.2.0/../../../../arm-none-eabi/lib\libg.a(lib_a-init.o)
 .comment       0x0000000000000045       0x24 c:/devkitpro/devkitarm/bin/../lib/gcc/arm-none-eabi/10.2.0/../../../../arm-none-eabi/lib\libg.a(lib_a-malloc.o)
 .comment       0x0000000000000045       0x24 c:/devkitpro/devkitarm/bin/../lib/gcc/arm-none-eabi/10.2.0/../../../../arm-none-eabi/lib\libg.a(lib_a-mallocr.o)
 .comment       0x0000000000000045       0x24 c:/devkitpro/devkitarm/bin/../lib/gcc/arm-none-eabi/10.2.0/../../../../arm-none-eabi/lib\libg.a(lib_a-memcpy-stub.o)
 .comment       0x0000000000000045       0x24 c:/devkitpro/devkitarm/bin/../lib/gcc/arm-none-eabi/10.2.0/../../../../arm-none-eabi/lib\libg.a(lib_a-mlock.o)
 .comment       0x0000000000000045       0x24 c:/devkitpro/devkitarm/bin/../lib/gcc/arm-none-eabi/10.2.0/../../../../arm-none-eabi/lib\libg.a(lib_a-freer.o)
 .comment       0x0000000000000045       0x24 c:/devkitpro/devkitarm/bin/../lib/gcc/arm-none-eabi/10.2.0/../../../../arm-none-eabi/lib\libsysbase.a(sbrk.o)
 .comment       0x0000000000000045       0x24 c:/devkitpro/devkitarm/bin/../lib/gcc/arm-none-eabi/10.2.0/../../../../arm-none-eabi/lib\libsysbase.a(malloc_vars.o)
 .comment       0x0000000000000045       0x24 c:/devkitpro/devkitarm/bin/../lib/gcc/arm-none-eabi/10.2.0/../../../../arm-none-eabi/lib\libsysbase.a(syscall_support.o)
 .comment       0x0000000000000045       0x24 c:/devkitpro/devkitarm/bin/../lib/gcc/arm-none-eabi/10.2.0/../../../../arm-none-eabi/lib\libsysbase.a(getreent.o)
 .comment       0x0000000000000045       0x24 c:/devkitpro/devkitarm/bin/../lib/gcc/arm-none-eabi/10.2.0/../../../../arm-none-eabi/lib\libg.a(lib_a-impure.o)
 .comment       0x0000000000000045       0x24 c:/devkitpro/devkitarm/bin/../lib/gcc/arm-none-eabi/10.2.0/crtend.o

.debug
 *(.debug)

.line
 *(.line)

.debug_srcinfo
 *(.debug_srcinfo)

.debug_sfnames
 *(.debug_sfnames)

.debug_aranges  0x0000000000000000      0x1b0
 *(.debug_aranges)
 .debug_aranges
                0x0000000000000000       0x20 loading.o
 .debug_aranges
                0x0000000000000020       0x20 character.o
 .debug_aranges
                0x0000000000000040       0x20 engine.o
 .debug_aranges
                0x0000000000000060       0x18 levels.o
 .debug_aranges
                0x0000000000000078       0x18 sprites.o
 .debug_aranges
                0x0000000000000090       0x20 core.o
 .debug_aranges
                0x00000000000000b0       0x20 graphics.o
 .debug_aranges
                0x00000000000000d0       0x20 input.o
 .debug_aranges
                0x00000000000000f0       0x20 load_data.o
 .debug_aranges
                0x0000000000000110       0x20 main.o
 .debug_aranges
                0x0000000000000130       0x20 math.o
 .debug_aranges
                0x0000000000000150       0x20 particles.o
 .debug_aranges
                0x0000000000000170       0x20 physics.o
 .debug_aranges
                0x0000000000000190       0x20 state_machine.o

.debug_pubnames
 *(.debug_pubnames)

.debug_info     0x0000000000000000     0x402e
 *(.debug_info)
 .debug_info    0x0000000000000000       0x26 loading.o
 .debug_info    0x0000000000000026      0x44e character.o
 .debug_info    0x0000000000000474      0x1df engine.o
 .debug_info    0x0000000000000653      0x15b levels.o
 .debug_info    0x00000000000007ae      0x28e sprites.o
 .debug_info    0x0000000000000a3c      0xf16 core.o
 .debug_info    0x0000000000001952      0xa6c graphics.o
 .debug_info    0x00000000000023be      0x240 input.o
 .debug_info    0x00000000000025fe      0x7bf load_data.o
 .debug_info    0x0000000000002dbd      0x1bf main.o
 .debug_info    0x0000000000002f7c      0x39b math.o
 .debug_info    0x0000000000003317      0x3ff particles.o
 .debug_info    0x0000000000003716      0x6b9 physics.o
 .debug_info    0x0000000000003dcf      0x25f state_machine.o

.debug_abbrev   0x0000000000000000     0x13af
 *(.debug_abbrev)
 .debug_abbrev  0x0000000000000000       0x14 loading.o
 .debug_abbrev  0x0000000000000014      0x1de character.o
 .debug_abbrev  0x00000000000001f2       0xaa engine.o
 .debug_abbrev  0x000000000000029c       0x63 levels.o
 .debug_abbrev  0x00000000000002ff       0x7b sprites.o
 .debug_abbrev  0x000000000000037a      0x2f8 core.o
 .debug_abbrev  0x0000000000000672      0x2ad graphics.o
 .debug_abbrev  0x000000000000091f      0x146 input.o
 .debug_abbrev  0x0000000000000a65      0x237 load_data.o
 .debug_abbrev  0x0000000000000c9c       0xe7 main.o
 .debug_abbrev  0x0000000000000d83      0x188 math.o
 .debug_abbrev  0x0000000000000f0b      0x1d4 particles.o
 .debug_abbrev  0x00000000000010df      0x1d4 physics.o
 .debug_abbrev  0x00000000000012b3       0xfc state_machine.o

.debug_line     0x0000000000000000     0x2e0a
 *(.debug_line)
 .debug_line    0x0000000000000000       0xfa loading.o
 .debug_line    0x00000000000000fa      0x25b character.o
 .debug_line    0x0000000000000355      0x178 engine.o
 .debug_line    0x00000000000004cd       0x8d levels.o
 .debug_line    0x000000000000055a       0x8f sprites.o
 .debug_line    0x00000000000005e9      0x83a core.o
 .debug_line    0x0000000000000e23      0x641 graphics.o
 .debug_line    0x0000000000001464      0x1ec input.o
 .debug_line    0x0000000000001650      0x77a load_data.o
 .debug_line    0x0000000000001dca      0x26d main.o
 .debug_line    0x0000000000002037      0x290 math.o
 .debug_line    0x00000000000022c7      0x476 particles.o
 .debug_line    0x000000000000273d      0x55e physics.o
 .debug_line    0x0000000000002c9b      0x16f state_machine.o

.debug_frame    0x0000000000000000      0xe30
 *(.debug_frame)
 .debug_frame   0x0000000000000000      0x100 character.o
 .debug_frame   0x0000000000000100       0x58 engine.o
 .debug_frame   0x0000000000000158      0x4b0 core.o
 .debug_frame   0x0000000000000608      0x22c graphics.o
 .debug_frame   0x0000000000000834       0xb8 input.o
 .debug_frame   0x00000000000008ec      0x134 load_data.o
 .debug_frame   0x0000000000000a20       0x2c main.o
 .debug_frame   0x0000000000000a4c      0x198 math.o
 .debug_frame   0x0000000000000be4       0xcc particles.o
 .debug_frame   0x0000000000000cb0       0xc0 physics.o
 .debug_frame   0x0000000000000d70       0xc0 state_machine.o

.debug_str      0x0000000000000000     0x159b
 *(.debug_str)
 .debug_str     0x0000000000000000       0xc4 loading.o
 .debug_str     0x00000000000000c4      0x2f3 character.o
                                        0x3c0 (size before relaxing)
 .debug_str     0x00000000000003b7       0xeb engine.o
                                        0x22d (size before relaxing)
 .debug_str     0x00000000000004a2       0x77 levels.o
                                        0x181 (size before relaxing)
 .debug_str     0x0000000000000519      0x119 sprites.o
                                        0x210 (size before relaxing)
 .debug_str     0x0000000000000632      0x4ef core.o
                                        0x7ae (size before relaxing)
 .debug_str     0x0000000000000b21      0x2a4 graphics.o
                                        0x519 (size before relaxing)
 .debug_str     0x0000000000000dc5       0xbb input.o
                                        0x2a5 (size before relaxing)
 .debug_str     0x0000000000000e80      0x1bb load_data.o
                                        0x4ad (size before relaxing)
 .debug_str     0x000000000000103b       0xab main.o
                                        0x2af (size before relaxing)
 .debug_str     0x00000000000010e6      0x11c math.o
                                        0x1eb (size before relaxing)
 .debug_str     0x0000000000001202       0xec particles.o
                                        0x35d (size before relaxing)
 .debug_str     0x00000000000012ee      0x1c6 physics.o
                                        0x445 (size before relaxing)
 .debug_str     0x00000000000014b4       0xe7 state_machine.o
                                        0x26c (size before relaxing)

.debug_loc
 *(.debug_loc)

.debug_macinfo
 *(.debug_macinfo)

.debug_weaknames
 *(.debug_weaknames)

.debug_funcnames
 *(.debug_funcnames)

.debug_typenames
 *(.debug_typenames)

.debug_varnames
 *(.debug_varnames)

.stack          0x0000000000080000        0x0
                0x0000000000080000                _stack = .
 *(.stack)

.note.gnu.arm.ident
 *(.note.gnu.arm.ident)

.ARM.attributes
                0x0000000000000000       0x2c
 *(.ARM.attributes)
 .ARM.attributes
                0x0000000000000000       0x20 c:/devkitpro/devkitarm/bin/../lib/gcc/arm-none-eabi/10.2.0/../../../../arm-none-eabi/lib/gba_crt0.o
 .ARM.attributes
                0x0000000000000020       0x1c c:/devkitpro/devkitarm/bin/../lib/gcc/arm-none-eabi/10.2.0/crti.o
 .ARM.attributes
                0x000000000000003c       0x2a c:/devkitpro/devkitarm/bin/../lib/gcc/arm-none-eabi/10.2.0/crtbegin.o
 .ARM.attributes
                0x0000000000000066       0x14 soundbank.bin.o
 .ARM.attributes
                0x000000000000007a       0x1a loading.o
 .ARM.attributes
                0x0000000000000094       0x2a character.o
 .ARM.attributes
                0x00000000000000be       0x2a engine.o
 .ARM.attributes
                0x00000000000000e8       0x30 levels.o
 .ARM.attributes
                0x0000000000000118       0x30 sprites.o
 .ARM.attributes
                0x0000000000000148       0x2a core.o
 .ARM.attributes
                0x0000000000000172       0x2a graphics.o
 .ARM.attributes
                0x000000000000019c       0x2a input.o
 .ARM.attributes
                0x00000000000001c6       0x2a load_data.o
 .ARM.attributes
                0x00000000000001f0       0x2a main.o
 .ARM.attributes
                0x000000000000021a       0x2a math.o
 .ARM.attributes
                0x0000000000000244       0x2a particles.o
 .ARM.attributes
                0x000000000000026e       0x2a physics.o
 .ARM.attributes
                0x0000000000000298       0x2a state_machine.o
 .ARM.attributes
                0x00000000000002c2       0x1a C:/devkitPro/libgba/lib\libmm.a(mm_main.o)
 .ARM.attributes
                0x00000000000002dc       0x1a C:/devkitPro/libgba/lib\libmm.a(mm_effect.o)
 .ARM.attributes
                0x00000000000002f6       0x1a C:/devkitPro/libgba/lib\libmm.a(mm_mas_arm.o)
 .ARM.attributes
                0x0000000000000310       0x1a C:/devkitPro/libgba/lib\libmm.a(mm_mixer_gba.o)
 .ARM.attributes
                0x000000000000032a       0x1a C:/devkitPro/libgba/lib\libmm.a(mm_init_default.o)
 .ARM.attributes
                0x0000000000000344       0x1a C:/devkitPro/libgba/lib\libmm.a(mm_mas.o)
 .ARM.attributes
                0x000000000000035e       0x2a C:/devkitPro/libtonc/lib\libtonc.a(tonc_irq.o)
 .ARM.attributes
                0x0000000000000388       0x2a C:/devkitPro/libtonc/lib\libtonc.a(tonc_oam.o)
 .ARM.attributes
                0x00000000000003b2       0x2a C:/devkitPro/libtonc/lib\libtonc.a(tonc_input.o)
 .ARM.attributes
                0x00000000000003dc       0x1a C:/devkitPro/libtonc/lib\libtonc.a(tonc_bios.o)
 .ARM.attributes
                0x00000000000003f6       0x1a C:/devkitPro/libtonc/lib\libtonc.a(tonc_memcpy.o)
 .ARM.attributes
                0x0000000000000410       0x1a C:/devkitPro/libtonc/lib\libtonc.a(tonc_isr_master.o)
 .ARM.attributes
                0x000000000000042a       0x1a C:/devkitPro/libtonc/lib\libtonc.a(tonc_memset.o)
 .ARM.attributes
                0x0000000000000444       0x1c c:/devkitpro/devkitarm/bin/../lib/gcc/arm-none-eabi/10.2.0\libgcc.a(_divsi3.o)
 .ARM.attributes
                0x0000000000000460       0x1c c:/devkitpro/devkitarm/bin/../lib/gcc/arm-none-eabi/10.2.0\libgcc.a(_dvmd_tls.o)
 .ARM.attributes
                0x000000000000047c       0x1c c:/devkitpro/devkitarm/bin/../lib/gcc/arm-none-eabi/10.2.0\libgcc.a(_call_via_rX.o)
 .ARM.attributes
                0x0000000000000498       0x2a c:/devkitpro/devkitarm/bin/../lib/gcc/arm-none-eabi/10.2.0/../../../../arm-none-eabi/lib\libg.a(lib_a-init.o)
 .ARM.attributes
                0x00000000000004c2       0x2a c:/devkitpro/devkitarm/bin/../lib/gcc/arm-none-eabi/10.2.0/../../../../arm-none-eabi/lib\libg.a(lib_a-malloc.o)
 .ARM.attributes
                0x00000000000004ec       0x2a c:/devkitpro/devkitarm/bin/../lib/gcc/arm-none-eabi/10.2.0/../../../../arm-none-eabi/lib\libg.a(lib_a-mallocr.o)
 .ARM.attributes
                0x0000000000000516       0x2a c:/devkitpro/devkitarm/bin/../lib/gcc/arm-none-eabi/10.2.0/../../../../arm-none-eabi/lib\libg.a(lib_a-memcpy-stub.o)
 .ARM.attributes
                0x0000000000000540       0x2a c:/devkitpro/devkitarm/bin/../lib/gcc/arm-none-eabi/10.2.0/../../../../arm-none-eabi/lib\libg.a(lib_a-mlock.o)
 .ARM.attributes
                0x000000000000056a       0x2a c:/devkitpro/devkitarm/bin/../lib/gcc/arm-none-eabi/10.2.0/../../../../arm-none-eabi/lib\libg.a(lib_a-freer.o)
 .ARM.attributes
                0x0000000000000594       0x2a c:/devkitpro/devkitarm/bin/../lib/gcc/arm-none-eabi/10.2.0/../../../../arm-none-eabi/lib\libsysbase.a(sbrk.o)
 .ARM.attributes
                0x00000000000005be       0x30 c:/devkitpro/devkitarm/bin/../lib/gcc/arm-none-eabi/10.2.0/../../../../arm-none-eabi/lib\libsysbase.a(malloc_vars.o)
 .ARM.attributes
                0x00000000000005ee       0x2a c:/devkitpro/devkitarm/bin/../lib/gcc/arm-none-eabi/10.2.0/../../../../arm-none-eabi/lib\libsysbase.a(syscall_support.o)
 .ARM.attributes
                0x0000000000000618       0x2a c:/devkitpro/devkitarm/bin/../lib/gcc/arm-none-eabi/10.2.0/../../../../arm-none-eabi/lib\libsysbase.a(getreent.o)
 .ARM.attributes
                0x0000000000000642       0x30 c:/devkitpro/devkitarm/bin/../lib/gcc/arm-none-eabi/10.2.0/../../../../arm-none-eabi/lib\libg.a(lib_a-impure.o)
 .ARM.attributes
                0x0000000000000672       0x30 c:/devkitpro/devkitarm/bin/../lib/gcc/arm-none-eabi/10.2.0/crtend.o
 .ARM.attributes
                0x00000000000006a2       0x1c c:/devkitpro/devkitarm/bin/../lib/gcc/arm-none-eabi/10.2.0/crtn.o

/DISCARD/
 *(.note.GNU-stack)
LOAD c:/devkitpro/devkitarm/bin/../lib/gcc/arm-none-eabi/10.2.0/../../../../arm-none-eabi/lib/gba_crt0.o
LOAD c:/devkitpro/devkitarm/bin/../lib/gcc/arm-none-eabi/10.2.0/crti.o
LOAD c:/devkitpro/devkitarm/bin/../lib/gcc/arm-none-eabi/10.2.0/crtbegin.o
LOAD soundbank.bin.o
LOAD loading.o
LOAD character.o
LOAD engine.o
LOAD levels.o
LOAD sprites.o
LOAD core.o
LOAD graphics.o
LOAD input.o
LOAD load_data.o
LOAD main.o
LOAD math.o
LOAD particles.o
LOAD physics.o
LOAD state_machine.o
LOAD C:/devkitPro/libgba/lib\libmm.a
LOAD C:/devkitPro/libtonc/lib\libtonc.a
START GROUP
LOAD c:/devkitpro/devkitarm/bin/../lib/gcc/arm-none-eabi/10.2.0\libgcc.a
LOAD c:/devkitpro/devkitarm/bin/../lib/gcc/arm-none-eabi/10.2.0/../../../../arm-none-eabi/lib\libg.a
LOAD c:/devkitpro/devkitarm/bin/../lib/gcc/arm-none-eabi/10.2.0/../../../../arm-none-eabi/lib\libc.a
LOAD c:/devkitpro/devkitarm/bin/../lib/gcc/arm-none-eabi/10.2.0/../../../../arm-none-eabi/lib\libsysbase.a
END GROUP
LOAD c:/devkitpro/devkitarm/bin/../lib/gcc/arm-none-eabi/10.2.0/crtend.o
LOAD c:/devkitpro/devkitarm/bin/../lib/gcc/arm-none-eabi/10.2.0/crtn.o
OUTPUT(C:/Users/IsaGoodFriend/source/HomeBrew/PixtroEditor/PixtroEditor/bin/Debug/netcoreapp3.1/dll/output.elf elf32-littlearm)
LOAD linker stubs

.debug_ranges   0x0000000000000000       0x30
 .debug_ranges  0x0000000000000000       0x18 core.o
 .debug_ranges  0x0000000000000018       0x18 graphics.o
